; Function Attrs: nounwind sspstrong uwtable
define internal noundef zeroext i1 @qobject_input_start_alternate(ptr noundef captures(none) %v, ptr noundef %name, ptr noundef writeonly captures(none) initializes((0, 8)) %obj, i64 noundef %size, ptr noundef %errp) #0 {
entry:
  %call.i = tail call fastcc ptr @qobject_input_try_get_object(ptr noundef %v, ptr noundef %name, i1 noundef zeroext false)
  %tobool1.not.i = icmp ne ptr %call.i, null
  br i1 %tobool1.not.i, label %if.end, label %if.then

if.then:                                          ; preds = %entry
  %call.i.i = tail call fastcc ptr @full_name_nth(ptr noundef %v, ptr noundef %name, i32 noundef 0)
  tail call void (ptr, ptr, i32, ptr, ptr, ...) @error_setg_internal(ptr noundef %errp, ptr noundef nonnull @.str.1, i32 noundef 171, ptr noundef nonnull @__func__.qobject_input_get_object, ptr noundef nonnull @.str.5, ptr noundef %call.i.i) #8
  store ptr null, ptr %obj, align 8
  br label %return

if.end:                                           ; preds = %entry
  %call2 = tail call noalias ptr @g_malloc0(i64 noundef %size) #6
  store ptr %call2, ptr %obj, align 8
  %call1.val = load i32, ptr %call.i, align 8
  %0 = add i32 %call1.val, -1
  %or.cond.i = icmp ult i32 %0, 6
  br i1 %or.cond.i, label %qobject_type.exit, label %if.else.i

if.else.i:                                        ; preds = %if.end
  tail call void @__assert_fail(ptr noundef nonnull @.str.12, ptr noundef nonnull @.str.13, i32 noundef 126, ptr noundef nonnull @__PRETTY_FUNCTION__.qobject_type) #7
  unreachable

qobject_type.exit:                                ; preds = %if.end
  store i32 %call1.val, ptr %call2, align 4
  br label %return

return:                                           ; preds = %qobject_type.exit, %if.then
  ret i1 %tobool1.not.i
}